; Function Attrs: nounwind uwtable
define ptr @l___private_Lean_Meta_Tactic_Grind_Internalize_0__Lean_Meta_Grind_addMatchEqns___lambda__2___boxed(ptr noundef %0, ptr noundef %1, ptr noundef %2, ptr noundef %3, ptr noundef %4, ptr noundef %5, ptr noundef %6, ptr noundef %7, ptr noundef %8, ptr noundef %9, ptr noundef %10, ptr noundef %11) local_unnamed_addr #1 {
  %13 = tail call ptr @l___private_Lean_Meta_Tactic_Grind_Internalize_0__Lean_Meta_Grind_addMatchEqns___lambda__2(ptr noundef %0, ptr noundef %1, ptr poison, ptr noundef %3, ptr noundef %4, ptr noundef %5, ptr noundef %6, ptr noundef %7, ptr noundef %8, ptr noundef %9, ptr noundef %10, ptr noundef %11)
  %14 = ptrtoint ptr %2 to i64
  %15 = and i64 %14, 1
  %.not = icmp eq i64 %15, 0
  br i1 %.not, label %16, label %lean_dec.exit

16:                                               ; preds = %12
  %17 = load i32, ptr %2, align 4, !tbaa !4
  %18 = icmp sgt i32 %17, 1
  br i1 %18, label %19, label %21, !prof !11

19:                                               ; preds = %16
  %20 = add nsw i32 %17, -1
  store i32 %20, ptr %2, align 4, !tbaa !4
  br label %lean_dec.exit

21:                                               ; preds = %16
  %.not.i = icmp eq i32 %17, 0
  br i1 %.not.i, label %lean_dec.exit, label %22

22:                                               ; preds = %21
  tail call void @lean_dec_ref_cold(ptr noundef nonnull %2) #4
  br label %lean_dec.exit

lean_dec.exit:                                    ; preds = %22, %21, %19, %12
  ret ptr %13
}